target datalayout = "e-m:e-p270:32:32-p271:32:32-p272:64:64-i64:64-i128:128-f80:128-n8:16:32:64-S128"
target triple = "x86_64-pc-linux-gnu"

%struct.rc2_key_st = type { [64 x i16] }

; Function Attrs: nounwind uwtable
define internal void @RC2_decrypt(ptr noundef %0, ptr noundef %1) #0 {
  %3 = alloca ptr, align 8
  %4 = alloca ptr, align 8
  %5 = alloca i32, align 4
  %6 = alloca i32, align 4
  %7 = alloca ptr, align 8
  %8 = alloca ptr, align 8
  %9 = alloca i16, align 2
  %10 = alloca i16, align 2
  %11 = alloca i16, align 2
  %12 = alloca i16, align 2
  %13 = alloca i16, align 2
  %14 = alloca i32, align 4
  store ptr %0, ptr %3, align 8, !tbaa !40
  store ptr %1, ptr %4, align 8, !tbaa !27
  call void @llvm.lifetime.start.p0(i64 4, ptr %5) #3
  call void @llvm.lifetime.start.p0(i64 4, ptr %6) #3
  call void @llvm.lifetime.start.p0(i64 8, ptr %7) #3
  call void @llvm.lifetime.start.p0(i64 8, ptr %8) #3
  call void @llvm.lifetime.start.p0(i64 2, ptr %9) #3
  call void @llvm.lifetime.start.p0(i64 2, ptr %10) #3
  call void @llvm.lifetime.start.p0(i64 2, ptr %11) #3
  call void @llvm.lifetime.start.p0(i64 2, ptr %12) #3
  call void @llvm.lifetime.start.p0(i64 2, ptr %13) #3
  call void @llvm.lifetime.start.p0(i64 4, ptr %14) #3
  %15 = load ptr, ptr %3, align 8, !tbaa !40
  %16 = getelementptr inbounds i32, ptr %15, i64 0
  %17 = load i32, ptr %16, align 4, !tbaa !13
  store i32 %17, ptr %14, align 4, !tbaa !13
  %18 = load i32, ptr %14, align 4, !tbaa !13
  %19 = trunc i32 %18 to i16
  %20 = zext i16 %19 to i32
  %21 = and i32 %20, 65535
  %22 = trunc i32 %21 to i16
  store i16 %22, ptr %9, align 2, !tbaa !35
  %23 = load i32, ptr %14, align 4, !tbaa !13
  %24 = lshr i32 %23, 16
  %25 = trunc i32 %24 to i16
  store i16 %25, ptr %10, align 2, !tbaa !35
  %26 = load ptr, ptr %3, align 8, !tbaa !40
  %27 = getelementptr inbounds i32, ptr %26, i64 1
  %28 = load i32, ptr %27, align 4, !tbaa !13
  store i32 %28, ptr %14, align 4, !tbaa !13
  %29 = load i32, ptr %14, align 4, !tbaa !13
  %30 = trunc i32 %29 to i16
  %31 = zext i16 %30 to i32
  %32 = and i32 %31, 65535
  %33 = trunc i32 %32 to i16
  store i16 %33, ptr %11, align 2, !tbaa !35
  %34 = load i32, ptr %14, align 4, !tbaa !13
  %35 = lshr i32 %34, 16
  %36 = trunc i32 %35 to i16
  store i16 %36, ptr %12, align 2, !tbaa !35
  store i32 3, ptr %6, align 4, !tbaa !13
  store i32 5, ptr %5, align 4, !tbaa !13
  %37 = load ptr, ptr %4, align 8, !tbaa !27
  %38 = getelementptr inbounds nuw %struct.rc2_key_st, ptr %37, i32 0, i32 0
  %39 = getelementptr inbounds [64 x i16], ptr %38, i64 0, i64 63
  store ptr %39, ptr %7, align 8, !tbaa !33
  %40 = load ptr, ptr %4, align 8, !tbaa !27
  %41 = getelementptr inbounds nuw %struct.rc2_key_st, ptr %40, i32 0, i32 0
  %42 = getelementptr inbounds [64 x i16], ptr %41, i64 0, i64 0
  store ptr %42, ptr %8, align 8, !tbaa !33
  br label %43

43:                                               ; preds = %232, %2
  %44 = load i16, ptr %12, align 2, !tbaa !35
  %45 = zext i16 %44 to i32
  %46 = shl i32 %45, 11
  %47 = load i16, ptr %12, align 2, !tbaa !35
  %48 = zext i16 %47 to i32
  %49 = ashr i32 %48, 5
  %50 = or i32 %46, %49
  %51 = and i32 %50, 65535
  %52 = trunc i32 %51 to i16
  store i16 %52, ptr %13, align 2, !tbaa !35
  %53 = load i16, ptr %13, align 2, !tbaa !35
  %54 = zext i16 %53 to i32
  %55 = load i16, ptr %9, align 2, !tbaa !35
  %56 = zext i16 %55 to i32
  %57 = load i16, ptr %11, align 2, !tbaa !35
  %58 = zext i16 %57 to i32
  %59 = xor i32 %58, -1
  %60 = and i32 %56, %59
  %61 = sub nsw i32 %54, %60
  %62 = load i16, ptr %10, align 2, !tbaa !35
  %63 = zext i16 %62 to i32
  %64 = load i16, ptr %11, align 2, !tbaa !35
  %65 = zext i16 %64 to i32
  %66 = and i32 %63, %65
  %67 = sub nsw i32 %61, %66
  %68 = load ptr, ptr %7, align 8, !tbaa !33
  %69 = getelementptr inbounds i16, ptr %68, i32 -1
  store ptr %69, ptr %7, align 8, !tbaa !33
  %70 = load i16, ptr %68, align 2, !tbaa !35
  %71 = zext i16 %70 to i32
  %72 = sub nsw i32 %67, %71
  %73 = and i32 %72, 65535
  %74 = trunc i32 %73 to i16
  store i16 %74, ptr %12, align 2, !tbaa !35
  %75 = load i16, ptr %11, align 2, !tbaa !35
  %76 = zext i16 %75 to i32
  %77 = shl i32 %76, 13
  %78 = load i16, ptr %11, align 2, !tbaa !35
  %79 = zext i16 %78 to i32
  %80 = ashr i32 %79, 3
  %81 = or i32 %77, %80
  %82 = and i32 %81, 65535
  %83 = trunc i32 %82 to i16
  store i16 %83, ptr %13, align 2, !tbaa !35
  %84 = load i16, ptr %13, align 2, !tbaa !35
  %85 = zext i16 %84 to i32
  %86 = load i16, ptr %12, align 2, !tbaa !35
  %87 = zext i16 %86 to i32
  %88 = load i16, ptr %10, align 2, !tbaa !35
  %89 = zext i16 %88 to i32
  %90 = xor i32 %89, -1
  %91 = and i32 %87, %90
  %92 = sub nsw i32 %85, %91
  %93 = load i16, ptr %9, align 2, !tbaa !35
  %94 = zext i16 %93 to i32
  %95 = load i16, ptr %10, align 2, !tbaa !35
  %96 = zext i16 %95 to i32
  %97 = and i32 %94, %96
  %98 = sub nsw i32 %92, %97
  %99 = load ptr, ptr %7, align 8, !tbaa !33
  %100 = getelementptr inbounds i16, ptr %99, i32 -1
  store ptr %100, ptr %7, align 8, !tbaa !33
  %101 = load i16, ptr %99, align 2, !tbaa !35
  %102 = zext i16 %101 to i32
  %103 = sub nsw i32 %98, %102
  %104 = and i32 %103, 65535
  %105 = trunc i32 %104 to i16
  store i16 %105, ptr %11, align 2, !tbaa !35
  %106 = load i16, ptr %10, align 2, !tbaa !35
  %107 = zext i16 %106 to i32
  %108 = shl i32 %107, 14
  %109 = load i16, ptr %10, align 2, !tbaa !35
  %110 = zext i16 %109 to i32
  %111 = ashr i32 %110, 2
  %112 = or i32 %108, %111
  %113 = and i32 %112, 65535
  %114 = trunc i32 %113 to i16
  store i16 %114, ptr %13, align 2, !tbaa !35
  %115 = load i16, ptr %13, align 2, !tbaa !35
  %116 = zext i16 %115 to i32
  %117 = load i16, ptr %11, align 2, !tbaa !35
  %118 = zext i16 %117 to i32
  %119 = load i16, ptr %9, align 2, !tbaa !35
  %120 = zext i16 %119 to i32
  %121 = xor i32 %120, -1
  %122 = and i32 %118, %121
  %123 = sub nsw i32 %116, %122
  %124 = load i16, ptr %12, align 2, !tbaa !35
  %125 = zext i16 %124 to i32
  %126 = load i16, ptr %9, align 2, !tbaa !35
  %127 = zext i16 %126 to i32
  %128 = and i32 %125, %127
  %129 = sub nsw i32 %123, %128
  %130 = load ptr, ptr %7, align 8, !tbaa !33
  %131 = getelementptr inbounds i16, ptr %130, i32 -1
  store ptr %131, ptr %7, align 8, !tbaa !33
  %132 = load i16, ptr %130, align 2, !tbaa !35
  %133 = zext i16 %132 to i32
  %134 = sub nsw i32 %129, %133
  %135 = and i32 %134, 65535
  %136 = trunc i32 %135 to i16
  store i16 %136, ptr %10, align 2, !tbaa !35
  %137 = load i16, ptr %9, align 2, !tbaa !35
  %138 = zext i16 %137 to i32
  %139 = shl i32 %138, 15
  %140 = load i16, ptr %9, align 2, !tbaa !35
  %141 = zext i16 %140 to i32
  %142 = ashr i32 %141, 1
  %143 = or i32 %139, %142
  %144 = and i32 %143, 65535
  %145 = trunc i32 %144 to i16
  store i16 %145, ptr %13, align 2, !tbaa !35
  %146 = load i16, ptr %13, align 2, !tbaa !35
  %147 = zext i16 %146 to i32
  %148 = load i16, ptr %10, align 2, !tbaa !35
  %149 = zext i16 %148 to i32
  %150 = load i16, ptr %12, align 2, !tbaa !35
  %151 = zext i16 %150 to i32
  %152 = xor i32 %151, -1
  %153 = and i32 %149, %152
  %154 = sub nsw i32 %147, %153
  %155 = load i16, ptr %11, align 2, !tbaa !35
  %156 = zext i16 %155 to i32
  %157 = load i16, ptr %12, align 2, !tbaa !35
  %158 = zext i16 %157 to i32
  %159 = and i32 %156, %158
  %160 = sub nsw i32 %154, %159
  %161 = load ptr, ptr %7, align 8, !tbaa !33
  %162 = getelementptr inbounds i16, ptr %161, i32 -1
  store ptr %162, ptr %7, align 8, !tbaa !33
  %163 = load i16, ptr %161, align 2, !tbaa !35
  %164 = zext i16 %163 to i32
  %165 = sub nsw i32 %160, %164
  %166 = and i32 %165, 65535
  %167 = trunc i32 %166 to i16
  store i16 %167, ptr %9, align 2, !tbaa !35
  %168 = load i32, ptr %5, align 4, !tbaa !13
  %169 = add nsw i32 %168, -1
  store i32 %169, ptr %5, align 4, !tbaa !13
  %170 = icmp eq i32 %169, 0
  br i1 %170, label %171, label %232

171:                                              ; preds = %43
  %172 = load i32, ptr %6, align 4, !tbaa !13
  %173 = add nsw i32 %172, -1
  store i32 %173, ptr %6, align 4, !tbaa !13
  %174 = icmp eq i32 %173, 0
  br i1 %174, label %175, label %176

175:                                              ; preds = %171
  br label %233

176:                                              ; preds = %171
  %177 = load i32, ptr %6, align 4, !tbaa !13
  %178 = icmp eq i32 %177, 2
  %179 = select i1 %178, i32 6, i32 5
  store i32 %179, ptr %5, align 4, !tbaa !13
  %180 = load i16, ptr %12, align 2, !tbaa !35
  %181 = zext i16 %180 to i32
  %182 = load ptr, ptr %8, align 8, !tbaa !33
  %183 = load i16, ptr %11, align 2, !tbaa !35
  %184 = zext i16 %183 to i32
  %185 = and i32 %184, 63
  %186 = sext i32 %185 to i64
  %187 = getelementptr inbounds i16, ptr %182, i64 %186
  %188 = load i16, ptr %187, align 2, !tbaa !35
  %189 = zext i16 %188 to i32
  %190 = sub nsw i32 %181, %189
  %191 = and i32 %190, 65535
  %192 = trunc i32 %191 to i16
  store i16 %192, ptr %12, align 2, !tbaa !35
  %193 = load i16, ptr %11, align 2, !tbaa !35
  %194 = zext i16 %193 to i32
  %195 = load ptr, ptr %8, align 8, !tbaa !33
  %196 = load i16, ptr %10, align 2, !tbaa !35
  %197 = zext i16 %196 to i32
  %198 = and i32 %197, 63
  %199 = sext i32 %198 to i64
  %200 = getelementptr inbounds i16, ptr %195, i64 %199
  %201 = load i16, ptr %200, align 2, !tbaa !35
  %202 = zext i16 %201 to i32
  %203 = sub nsw i32 %194, %202
  %204 = and i32 %203, 65535
  %205 = trunc i32 %204 to i16
  store i16 %205, ptr %11, align 2, !tbaa !35
  %206 = load i16, ptr %10, align 2, !tbaa !35
  %207 = zext i16 %206 to i32
  %208 = load ptr, ptr %8, align 8, !tbaa !33
  %209 = load i16, ptr %9, align 2, !tbaa !35
  %210 = zext i16 %209 to i32
  %211 = and i32 %210, 63
  %212 = sext i32 %211 to i64
  %213 = getelementptr inbounds i16, ptr %208, i64 %212
  %214 = load i16, ptr %213, align 2, !tbaa !35
  %215 = zext i16 %214 to i32
  %216 = sub nsw i32 %207, %215
  %217 = and i32 %216, 65535
  %218 = trunc i32 %217 to i16
  store i16 %218, ptr %10, align 2, !tbaa !35
  %219 = load i16, ptr %9, align 2, !tbaa !35
  %220 = zext i16 %219 to i32
  %221 = load ptr, ptr %8, align 8, !tbaa !33
  %222 = load i16, ptr %12, align 2, !tbaa !35
  %223 = zext i16 %222 to i32
  %224 = and i32 %223, 63
  %225 = sext i32 %224 to i64
  %226 = getelementptr inbounds i16, ptr %221, i64 %225
  %227 = load i16, ptr %226, align 2, !tbaa !35
  %228 = zext i16 %227 to i32
  %229 = sub nsw i32 %220, %228
  %230 = and i32 %229, 65535
  %231 = trunc i32 %230 to i16
  store i16 %231, ptr %9, align 2, !tbaa !35
  br label %232

232:                                              ; preds = %176, %43
  br label %43

233:                                              ; preds = %175
  %234 = load i16, ptr %9, align 2, !tbaa !35
  %235 = zext i16 %234 to i32
  %236 = and i32 %235, 65535
  %237 = load i16, ptr %10, align 2, !tbaa !35
  %238 = zext i16 %237 to i32
  %239 = and i32 %238, 65535
  %240 = shl i32 %239, 16
  %241 = or i32 %236, %240
  %242 = load ptr, ptr %3, align 8, !tbaa !40
  %243 = getelementptr inbounds i32, ptr %242, i64 0
  store i32 %241, ptr %243, align 4, !tbaa !13
  %244 = load i16, ptr %11, align 2, !tbaa !35
  %245 = zext i16 %244 to i32
  %246 = and i32 %245, 65535
  %247 = load i16, ptr %12, align 2, !tbaa !35
  %248 = zext i16 %247 to i32
  %249 = and i32 %248, 65535
  %250 = shl i32 %249, 16
  %251 = or i32 %246, %250
  %252 = load ptr, ptr %3, align 8, !tbaa !40
  %253 = getelementptr inbounds i32, ptr %252, i64 1
  store i32 %251, ptr %253, align 4, !tbaa !13
  call void @llvm.lifetime.end.p0(i64 4, ptr %14) #3
  call void @llvm.lifetime.end.p0(i64 2, ptr %13) #3
  call void @llvm.lifetime.end.p0(i64 2, ptr %12) #3
  call void @llvm.lifetime.end.p0(i64 2, ptr %11) #3
  call void @llvm.lifetime.end.p0(i64 2, ptr %10) #3
  call void @llvm.lifetime.end.p0(i64 2, ptr %9) #3
  call void @llvm.lifetime.end.p0(i64 8, ptr %8) #3
  call void @llvm.lifetime.end.p0(i64 8, ptr %7) #3
  call void @llvm.lifetime.end.p0(i64 4, ptr %6) #3
  call void @llvm.lifetime.end.p0(i64 4, ptr %5) #3
  ret void
}