; Function Attrs: nofree norecurse nosync nounwind memory(argmem: readwrite) uwtable
define internal fastcc void @RC2_decrypt(ptr noundef nonnull captures(none) %0, ptr noundef readonly captures(none) %1) unnamed_addr #5 {
  %3 = load i32, ptr %0, align 4, !tbaa !26
  %4 = lshr i32 %3, 16
  %5 = getelementptr inbounds nuw i8, ptr %0, i64 4
  %6 = load i32, ptr %5, align 4, !tbaa !26
  %7 = lshr i32 %6, 16
  %8 = getelementptr inbounds nuw i8, ptr %1, i64 126
  br label %.outer

.outer:                                           ; preds = %66, %2
  %.070.ph = phi ptr [ %55, %66 ], [ %8, %2 ]
  %.068.ph = phi i32 [ %89, %66 ], [ %3, %2 ]
  %.066.ph = phi i32 [ %.pre, %66 ], [ %4, %2 ]
  %.064.ph = phi i32 [ %79, %66 ], [ %6, %2 ]
  %.062.ph = phi i32 [ %73, %66 ], [ %7, %2 ]
  %.060.ph = phi i32 [ %64, %66 ], [ 3, %2 ]
  %.0.ph = phi i32 [ %68, %66 ], [ 5, %2 ]
  br label %9

9:                                                ; preds = %.outer, %9
  %.070 = phi ptr [ %55, %9 ], [ %.070.ph, %.outer ]
  %.068 = phi i32 [ %60, %9 ], [ %.068.ph, %.outer ]
  %.066 = phi i32 [ %51, %9 ], [ %.066.ph, %.outer ]
  %.064 = phi i32 [ %39, %9 ], [ %.064.ph, %.outer ]
  %.062 = phi i32 [ %24, %9 ], [ %.062.ph, %.outer ]
  %.0 = phi i32 [ %61, %9 ], [ %.0.ph, %.outer ]
  %10 = shl nuw nsw i32 %.062, 11
  %11 = lshr i32 %.062, 5
  %12 = and i32 %.068, 65535
  %13 = and i32 %.064, 65535
  %14 = xor i32 %13, -1
  %15 = and i32 %.068, %14
  %16 = and i32 %.064, %.066
  %17 = getelementptr inbounds i8, ptr %.070, i64 -2
  %18 = load i16, ptr %.070, align 2, !tbaa !21
  %19 = zext i16 %18 to i32
  %20 = or disjoint i32 %11, %10
  %21 = add i32 %16, %15
  %22 = add i32 %21, %19
  %23 = sub i32 %20, %22
  %24 = and i32 %23, 65535
  %25 = shl nuw nsw i32 %13, 13
  %26 = lshr i32 %13, 3
  %27 = xor i32 %.066, -1
  %28 = and i32 %23, %27
  %29 = and i32 %.066, %.068
  %30 = getelementptr inbounds i8, ptr %.070, i64 -4
  %31 = load i16, ptr %17, align 2, !tbaa !21
  %32 = zext i16 %31 to i32
  %33 = or disjoint i32 %26, %25
  %34 = add nuw nsw i32 %29, %32
  %35 = add i32 %34, %28
  %36 = sub i32 %33, %35
  %37 = shl nuw nsw i32 %.066, 14
  %38 = lshr i32 %.066, 2
  %39 = and i32 %36, 65535
  %40 = xor i32 %12, -1
  %41 = and i32 %36, %40
  %42 = and i32 %23, %.068
  %43 = getelementptr inbounds i8, ptr %.070, i64 -6
  %44 = load i16, ptr %30, align 2, !tbaa !21
  %45 = zext i16 %44 to i32
  %.neg85 = or disjoint i32 %37, %38
  %46 = add i32 %42, %45
  %47 = add i32 %46, %41
  %48 = sub i32 %.neg85, %47
  %49 = shl nuw nsw i32 %12, 15
  %50 = lshr i32 %12, 1
  %51 = and i32 %48, 65535
  %52 = xor i32 %24, -1
  %53 = and i32 %48, %52
  %54 = and i32 %36, %23
  %55 = getelementptr inbounds i8, ptr %.070, i64 -8
  %56 = load i16, ptr %43, align 2, !tbaa !21
  %57 = zext i16 %56 to i32
  %.neg90 = or disjoint i32 %49, %50
  %58 = add i32 %54, %57
  %59 = add i32 %58, %53
  %60 = sub i32 %.neg90, %59
  %61 = add nsw i32 %.0, -1
  %62 = icmp eq i32 %61, 0
  br i1 %62, label %63, label %9

63:                                               ; preds = %9
  %64 = add nsw i32 %.060.ph, -1
  %65 = icmp eq i32 %64, 0
  br i1 %65, label %90, label %66

66:                                               ; preds = %63
  %67 = icmp eq i32 %64, 2
  %68 = select i1 %67, i32 6, i32 5
  %69 = and i32 %36, 63
  %70 = zext nneg i32 %69 to i64
  %71 = getelementptr inbounds nuw i16, ptr %1, i64 %70
  %72 = load i16, ptr %71, align 2, !tbaa !21
  %.tr = trunc i32 %23 to i16
  %.narrow = sub i16 %.tr, %72
  %73 = zext i16 %.narrow to i32
  %74 = and i32 %48, 63
  %75 = zext nneg i32 %74 to i64
  %76 = getelementptr inbounds nuw i16, ptr %1, i64 %75
  %77 = load i16, ptr %76, align 2, !tbaa !21
  %78 = zext i16 %77 to i32
  %79 = sub nsw i32 %39, %78
  %80 = and i32 %60, 63
  %81 = zext nneg i32 %80 to i64
  %82 = getelementptr inbounds nuw i16, ptr %1, i64 %81
  %83 = load i16, ptr %82, align 2, !tbaa !21
  %84 = and i16 %.narrow, 63
  %85 = zext nneg i16 %84 to i64
  %86 = getelementptr inbounds nuw i16, ptr %1, i64 %85
  %87 = load i16, ptr %86, align 2, !tbaa !21
  %88 = zext i16 %87 to i32
  %89 = sub i32 %60, %88
  %.tr99 = trunc i32 %48 to i16
  %.narrow100 = sub i16 %.tr99, %83
  %.pre = zext i16 %.narrow100 to i32
  br label %.outer

90:                                               ; preds = %63
  %91 = and i32 %60, 65535
  %92 = shl nuw i32 %51, 16
  %93 = or disjoint i32 %91, %92
  store i32 %93, ptr %0, align 4, !tbaa !26
  %94 = shl nuw i32 %24, 16
  %95 = or disjoint i32 %39, %94
  store i32 %95, ptr %5, align 4, !tbaa !26
  ret void
}